target datalayout = "e-m:e-p270:32:32-p271:32:32-p272:64:64-i64:64-i128:128-f80:128-n8:16:32:64-S128"
target triple = "x86_64-pc-linux-gnu"

%struct.pack_info_t = type { [256 x i8], [6 x %struct.filter_info_t], i32, i32, %struct.chunk_info_t, i64 }
%struct.filter_info_t = type { i32, i32, [20 x i32], i64 }
%struct.chunk_info_t = type { [32 x i64], i32 }
%struct.pack_opt_t = type { ptr, i32, i32, [6 x %struct.filter_info_t], i32, %struct.chunk_info_t, i32, i32, i8, i8, i64, i32, i8, i32, i32, i64, i64, i32, i32, [8 x i32], ptr, i64, i64, i64, i64, i32, i32, i64, i64 }

@.str.1 = private unnamed_addr constant [71 x i8] c"invalid layout input: 'all' option is present with other objects <%s>\0A\00", align 1

; Function Attrs: nounwind uwtable
define dso_local i32 @h5repack_addlayout(ptr noundef %0, ptr noundef %1) #0 {
  %3 = alloca i32, align 4
  %4 = alloca ptr, align 8
  %5 = alloca ptr, align 8
  %6 = alloca ptr, align 8
  %7 = alloca i32, align 4
  %8 = alloca %struct.pack_info_t, align 8
  %9 = alloca i32, align 4
  %10 = alloca i32, align 4
  store ptr %0, ptr %4, align 8
  store ptr %1, ptr %5, align 8
  store ptr null, ptr %6, align 8
  store i32 -1, ptr %10, align 4
  call void @init_packobject(ptr noundef %8)
  %11 = load ptr, ptr %5, align 8
  %12 = getelementptr inbounds %struct.pack_opt_t, ptr %11, i32 0, i32 1
  %13 = load i32, ptr %12, align 8
  %14 = icmp eq i32 %13, 1
  br i1 %14, label %15, label %18

15:                                               ; preds = %2
  %16 = load ptr, ptr %4, align 8
  call void (ptr, ...) @error_msg(ptr noundef @.str.1, ptr noundef %16)
  %17 = load i32, ptr %10, align 4
  store i32 %17, ptr %3, align 4
  br label %93

18:                                               ; preds = %2
  %19 = load ptr, ptr %4, align 8
  %20 = load ptr, ptr %5, align 8
  %21 = call ptr @parse_layout(ptr noundef %19, ptr noundef %7, ptr noundef %8, ptr noundef %20)
  store ptr %21, ptr %6, align 8
  %22 = load ptr, ptr %6, align 8
  %23 = icmp ne ptr %22, null
  br i1 %23, label %24, label %91

24:                                               ; preds = %18
  %25 = getelementptr inbounds %struct.pack_info_t, ptr %8, i32 0, i32 3
  %26 = load i32, ptr %25, align 4
  %27 = load ptr, ptr %5, align 8
  %28 = getelementptr inbounds %struct.pack_opt_t, ptr %27, i32 0, i32 6
  store i32 %26, ptr %28, align 8
  %29 = load ptr, ptr %5, align 8
  %30 = getelementptr inbounds %struct.pack_opt_t, ptr %29, i32 0, i32 1
  %31 = load i32, ptr %30, align 8
  %32 = icmp eq i32 %31, 1
  br i1 %32, label %33, label %77

33:                                               ; preds = %24
  %34 = getelementptr inbounds %struct.pack_info_t, ptr %8, i32 0, i32 3
  %35 = load i32, ptr %34, align 4
  %36 = icmp eq i32 %35, 2
  br i1 %36, label %37, label %76

37:                                               ; preds = %33
  %38 = getelementptr inbounds %struct.pack_info_t, ptr %8, i32 0, i32 4
  %39 = getelementptr inbounds %struct.chunk_info_t, ptr %38, i32 0, i32 1
  %40 = load i32, ptr %39, align 8
  %41 = icmp eq i32 %40, -2
  br i1 %41, label %42, label %45

42:                                               ; preds = %37
  %43 = load ptr, ptr %5, align 8
  %44 = getelementptr inbounds %struct.pack_opt_t, ptr %43, i32 0, i32 6
  store i32 1, ptr %44, align 8
  br label %75

45:                                               ; preds = %37
  %46 = getelementptr inbounds %struct.pack_info_t, ptr %8, i32 0, i32 4
  %47 = getelementptr inbounds %struct.chunk_info_t, ptr %46, i32 0, i32 1
  %48 = load i32, ptr %47, align 8
  %49 = load ptr, ptr %5, align 8
  %50 = getelementptr inbounds %struct.pack_opt_t, ptr %49, i32 0, i32 5
  %51 = getelementptr inbounds %struct.chunk_info_t, ptr %50, i32 0, i32 1
  store i32 %48, ptr %51, align 8
  store i32 0, ptr %9, align 4
  br label %52

52:                                               ; preds = %71, %45
  %53 = load i32, ptr %9, align 4
  %54 = getelementptr inbounds %struct.pack_info_t, ptr %8, i32 0, i32 4
  %55 = getelementptr inbounds %struct.chunk_info_t, ptr %54, i32 0, i32 1
  %56 = load i32, ptr %55, align 8
  %57 = icmp slt i32 %53, %56
  br i1 %57, label %58, label %74

58:                                               ; preds = %52
  %59 = getelementptr inbounds %struct.pack_info_t, ptr %8, i32 0, i32 4
  %60 = getelementptr inbounds %struct.chunk_info_t, ptr %59, i32 0, i32 0
  %61 = load i32, ptr %9, align 4
  %62 = sext i32 %61 to i64
  %63 = getelementptr inbounds [32 x i64], ptr %60, i64 0, i64 %62
  %64 = load i64, ptr %63, align 8
  %65 = load ptr, ptr %5, align 8
  %66 = getelementptr inbounds %struct.pack_opt_t, ptr %65, i32 0, i32 5
  %67 = getelementptr inbounds %struct.chunk_info_t, ptr %66, i32 0, i32 0
  %68 = load i32, ptr %9, align 4
  %69 = sext i32 %68 to i64
  %70 = getelementptr inbounds [32 x i64], ptr %67, i64 0, i64 %69
  store i64 %64, ptr %70, align 8
  br label %71

71:                                               ; preds = %58
  %72 = load i32, ptr %9, align 4
  %73 = add nsw i32 %72, 1
  store i32 %73, ptr %9, align 4
  br label %52

74:                                               ; preds = %52
  br label %75

75:                                               ; preds = %74, %42
  br label %76

76:                                               ; preds = %75, %33
  br label %77

77:                                               ; preds = %76, %24
  %78 = load ptr, ptr %5, align 8
  %79 = getelementptr inbounds %struct.pack_opt_t, ptr %78, i32 0, i32 1
  %80 = load i32, ptr %79, align 8
  %81 = icmp eq i32 %80, 0
  br i1 %81, label %82, label %89

82:                                               ; preds = %77
  %83 = load ptr, ptr %6, align 8
  %84 = load i32, ptr %7, align 4
  %85 = load ptr, ptr %5, align 8
  %86 = getelementptr inbounds %struct.pack_opt_t, ptr %85, i32 0, i32 0
  %87 = load ptr, ptr %86, align 8
  %88 = call i32 @options_add_layout(ptr noundef %83, i32 noundef %84, ptr noundef %8, ptr noundef %87)
  store i32 %88, ptr %10, align 4
  br label %89

89:                                               ; preds = %82, %77
  %90 = load ptr, ptr %6, align 8
  call void @free(ptr noundef %90) #7
  store i32 0, ptr %10, align 4
  br label %91

91:                                               ; preds = %89, %18
  %92 = load i32, ptr %10, align 4
  store i32 %92, ptr %3, align 4
  br label %93

93:                                               ; preds = %91, %15
  %94 = load i32, ptr %3, align 4
  ret i32 %94
}