; Function Attrs: nounwind uwtable
define dso_local range(i32 -1, 1) i32 @h5repack_addlayout(ptr noundef %0, ptr noundef %1) local_unnamed_addr #0 {
  %3 = alloca i32, align 4
  %4 = alloca %struct.pack_info_t, align 8
  call void @init_packobject(ptr noundef nonnull %4) #10
  %5 = getelementptr inbounds nuw i8, ptr %1, i64 8
  %6 = load i32, ptr %5, align 8
  %7 = icmp eq i32 %6, 1
  br i1 %7, label %8, label %9

8:                                                ; preds = %2
  call void (ptr, ...) @error_msg(ptr noundef nonnull @.str.1, ptr noundef %0) #10
  br label %34

9:                                                ; preds = %2
  %10 = call ptr @parse_layout(ptr noundef %0, ptr noundef nonnull %3, ptr noundef nonnull %4, ptr noundef nonnull %1) #10
  %.not = icmp eq ptr %10, null
  br i1 %.not, label %34, label %11

11:                                               ; preds = %9
  %12 = getelementptr inbounds nuw i8, ptr %4, i64 836
  %13 = load i32, ptr %12, align 4
  %14 = getelementptr inbounds nuw i8, ptr %1, i64 864
  store i32 %13, ptr %14, align 8
  %15 = load i32, ptr %5, align 8
  %16 = icmp eq i32 %15, 1
  %17 = icmp eq i32 %13, 2
  %or.cond = select i1 %16, i1 %17, i1 false
  br i1 %or.cond, label %18, label %.loopexit

18:                                               ; preds = %11
  %19 = getelementptr inbounds nuw i8, ptr %4, i64 840
  %20 = getelementptr inbounds nuw i8, ptr %4, i64 1096
  %21 = load i32, ptr %20, align 8
  %22 = icmp eq i32 %21, -2
  br i1 %22, label %.thread, label %23

.thread:                                          ; preds = %18
  store i32 1, ptr %14, align 8
  br label %.loopexit.thread

23:                                               ; preds = %18
  %24 = getelementptr inbounds nuw i8, ptr %1, i64 856
  store i32 %21, ptr %24, align 8
  %25 = icmp sgt i32 %21, 0
  br i1 %25, label %.lr.ph.preheader, label %.loopexit.thread

.lr.ph.preheader:                                 ; preds = %23
  %26 = getelementptr i8, ptr %1, i64 600
  %27 = zext nneg i32 %21 to i64
  %28 = shl nuw nsw i64 %27, 3
  call void @llvm.memcpy.p0.p0.i64(ptr align 8 %26, ptr nonnull align 8 %19, i64 %28, i1 false)
  br label %.loopexit.thread

.loopexit:                                        ; preds = %11
  %29 = icmp eq i32 %15, 0
  br i1 %29, label %30, label %.loopexit.thread

30:                                               ; preds = %.loopexit
  %31 = load i32, ptr %3, align 4
  %32 = load ptr, ptr %1, align 8
  %33 = call i32 @options_add_layout(ptr noundef nonnull %10, i32 noundef %31, ptr noundef nonnull %4, ptr noundef %32) #10
  br label %.loopexit.thread

.loopexit.thread:                                 ; preds = %23, %.lr.ph.preheader, %.thread, %30, %.loopexit
  call void @free(ptr noundef nonnull %10) #10
  br label %34

34:                                               ; preds = %9, %.loopexit.thread, %8
  %.023 = phi i32 [ -1, %8 ], [ 0, %.loopexit.thread ], [ -1, %9 ]
  ret i32 %.023
}